target datalayout = "e-m:e-p270:32:32-p271:32:32-p272:64:64-i64:64-i128:128-f80:128-n8:16:32:64-S128"
target triple = "x86_64-unknown-linux-gnu"

%struct.redisServer = type { i32, i64, ptr, ptr, ptr, i32, i32, i32, i32, i32, ptr, ptr, ptr, ptr, ptr, ptr, i32, i32, i64, i32, i32, i32, i32, ptr, i32, i32, [41 x i8], i32, i64, i32, i32, i32, ptr, ptr, i32, i32, i64, ptr, ptr, ptr, ptr, [2 x i32], i32, i32, i32, i32, i32, [16 x ptr], i32, ptr, ptr, i32, [8 x %struct.connListener], i32, %struct.connListener, ptr, ptr, ptr, ptr, ptr, ptr, ptr, ptr, ptr, ptr, i32, ptr, i32, ptr, [3 x %struct.pause_event], [256 x i8], ptr, i64, i32, i32, i32, i32, i64, i32, i32, i32, i32, i32, i64, i64, i64, i64, i64, i64, i64, i64, i64, double, i64, i64, i64, i64, i64, i64, i64, i64, i64, i64, i64, i64, i64, i64, i64, i64, i64, i64, i64, i64, double, i64, i64, i64, i64, i64, ptr, i64, i64, i64, %struct.malloc_stats, i64, i64, i64, i64, i64, i64, i64, i64, i64, i64, i64, i64, double, [4 x i64], i64, i64, i64, i64, i64, i64, i64, i64, i64, i64, [7 x %struct.anon], i64, i64, i64, i64, i64, i64, [4 x %struct.durationStats], i32, i32, i32, i32, i32, i32, i32, i32, i32, i32, i64, i32, i32, i32, i32, i64, i64, i32, i32, i32, i32, i32, ptr, [3 x %struct.clientBufferLimitsConfig], i32, i32, ptr, i32, i32, i32, i32, ptr, ptr, i32, i32, i64, i64, i64, i64, i64, i32, i32, ptr, i32, i32, i64, i64, i64, i64, i64, i32, i32, i64, i32, i32, i32, i32, i32, i32, i32, i32, ptr, i32, i64, i64, i64, i64, ptr, i32, ptr, i32, i32, i32, i64, i64, i64, i64, i32, i32, i32, i32, i32, i32, ptr, i32, i32, ptr, i32, i32, i32, [2 x i32], i32, %struct.redisOpArray, i32, ptr, i32, ptr, i32, i32, i32, i32, i32, i32, i32, [41 x i8], [41 x i8], i64, i64, i64, i64, i32, i32, ptr, i64, i64, i64, i32, i32, i32, i32, i32, i32, i32, i64, ptr, ptr, ptr, ptr, i32, i32, ptr, ptr, i32, i32, i64, i64, i64, ptr, i32, ptr, i64, i32, i32, i32, i64, i32, i32, i32, i32, ptr, i32, i32, [41 x i8], i64, i32, ptr, i32, i32, i64, i64, i32, i32, i32, i32, i32, i64, [3 x i32], i32, i32, i32, [9 x i32], ptr, ptr, i32, i64, ptr, ptr, i32, i32, i32, i32, i64, i64, i64, i64, i64, i64, i64, i64, i64, i64, i32, i32, i64, i64, i32, i64, i64, i64, i64, i64, ptr, ptr, i32, ptr, i32, i32, i32, i64, i64, ptr, ptr, i32, i32, i32, i32, i32, ptr, ptr, ptr, i32, i32, i32, i32, i32, i32, i32, i64, i32, i64, i32, i32, i32, i32, i32, i32, i32, i64, ptr, ptr, i64, ptr, i32, %struct.aclInfo, i32, i64, i32, i32, i32, %struct.redisTLSContextConfig, ptr, ptr, ptr, ptr, ptr, i64, i32, ptr, i32, i32, i32, i64, i32, ptr }
%struct.connListener = type { [16 x i32], i32, ptr, i32, i32, ptr, ptr }
%struct.pause_event = type { i32, i64 }
%struct.malloc_stats = type { i64, i64, i64, i64, i64 }
%struct.anon = type { i64, i64, [16 x i64], i32 }
%struct.durationStats = type { i64, i64, i64 }
%struct.clientBufferLimitsConfig = type { i64, i64, i64 }
%struct.redisOpArray = type { ptr, i32, i32 }
%struct.aclInfo = type { i64, i64, i64, i64 }
%struct.redisTLSContextConfig = type { ptr, ptr, ptr, ptr, ptr, ptr, ptr, ptr, ptr, ptr, ptr, ptr, i32, i32, i32, i32 }

@server = external global %struct.redisServer, align 8
@.str.280 = private unnamed_addr constant [2 x i8] c"\0A\00", align 1
@__const.serverLogHexDump.charset = private unnamed_addr constant [17 x i8] c"0123456789abcdef\00", align 16
@.str.290 = private unnamed_addr constant [27 x i8] c"%s (hexdump of %zu bytes):\00", align 1

; Function Attrs: nounwind uwtable
define dso_local void @serverLogHexDump(i32 noundef %level, ptr noundef %descr, ptr noundef %value, i64 noundef %len) #0 {
entry:
  %level.addr = alloca i32, align 4
  %descr.addr = alloca ptr, align 8
  %value.addr = alloca ptr, align 8
  %len.addr = alloca i64, align 8
  %buf = alloca [65 x i8], align 16
  %b = alloca ptr, align 8
  %v = alloca ptr, align 8
  %charset = alloca [17 x i8], align 16
  store i32 %level, ptr %level.addr, align 4
  store ptr %descr, ptr %descr.addr, align 8
  store ptr %value, ptr %value.addr, align 8
  store i64 %len, ptr %len.addr, align 8
  %0 = load ptr, ptr %value.addr, align 8
  store ptr %0, ptr %v, align 8
  call void @llvm.memcpy.p0.p0.i64(ptr align 16 %charset, ptr align 16 @__const.serverLogHexDump.charset, i64 17, i1 false)
  br label %do.body

do.body:                                          ; preds = %entry
  %1 = load i32, ptr %level.addr, align 4
  %and = and i32 %1, 255
  %2 = load i32, ptr getelementptr inbounds (%struct.redisServer, ptr @server, i32 0, i32 156), align 8
  %cmp = icmp slt i32 %and, %2
  br i1 %cmp, label %if.then, label %if.end

if.then:                                          ; preds = %do.body
  br label %do.end

if.end:                                           ; preds = %do.body
  %3 = load i32, ptr %level.addr, align 4
  %4 = load ptr, ptr %descr.addr, align 8
  %5 = load i64, ptr %len.addr, align 8
  call void (i32, ptr, ...) @_serverLog(i32 noundef %3, ptr noundef @.str.290, ptr noundef %4, i64 noundef %5)
  br label %do.end

do.end:                                           ; preds = %if.end, %if.then
  %arraydecay = getelementptr inbounds [65 x i8], ptr %buf, i64 0, i64 0
  store ptr %arraydecay, ptr %b, align 8
  br label %while.cond

while.cond:                                       ; preds = %if.end16, %do.end
  %6 = load i64, ptr %len.addr, align 8
  %tobool = icmp ne i64 %6, 0
  br i1 %tobool, label %while.body, label %while.end

while.body:                                       ; preds = %while.cond
  %7 = load ptr, ptr %v, align 8
  %8 = load i8, ptr %7, align 1
  %conv = zext i8 %8 to i32
  %shr = ashr i32 %conv, 4
  %idxprom = sext i32 %shr to i64
  %arrayidx = getelementptr inbounds [17 x i8], ptr %charset, i64 0, i64 %idxprom
  %9 = load i8, ptr %arrayidx, align 1
  %10 = load ptr, ptr %b, align 8
  %arrayidx1 = getelementptr inbounds i8, ptr %10, i64 0
  store i8 %9, ptr %arrayidx1, align 1
  %11 = load ptr, ptr %v, align 8
  %12 = load i8, ptr %11, align 1
  %conv2 = zext i8 %12 to i32
  %and3 = and i32 %conv2, 15
  %idxprom4 = sext i32 %and3 to i64
  %arrayidx5 = getelementptr inbounds [17 x i8], ptr %charset, i64 0, i64 %idxprom4
  %13 = load i8, ptr %arrayidx5, align 1
  %14 = load ptr, ptr %b, align 8
  %arrayidx6 = getelementptr inbounds i8, ptr %14, i64 1
  store i8 %13, ptr %arrayidx6, align 1
  %15 = load ptr, ptr %b, align 8
  %arrayidx7 = getelementptr inbounds i8, ptr %15, i64 2
  store i8 0, ptr %arrayidx7, align 1
  %16 = load ptr, ptr %b, align 8
  %add.ptr = getelementptr inbounds i8, ptr %16, i64 2
  store ptr %add.ptr, ptr %b, align 8
  %17 = load i64, ptr %len.addr, align 8
  %dec = add i64 %17, -1
  store i64 %dec, ptr %len.addr, align 8
  %18 = load ptr, ptr %v, align 8
  %incdec.ptr = getelementptr inbounds i8, ptr %18, i32 1
  store ptr %incdec.ptr, ptr %v, align 8
  %19 = load ptr, ptr %b, align 8
  %arraydecay8 = getelementptr inbounds [65 x i8], ptr %buf, i64 0, i64 0
  %sub.ptr.lhs.cast = ptrtoint ptr %19 to i64
  %sub.ptr.rhs.cast = ptrtoint ptr %arraydecay8 to i64
  %sub.ptr.sub = sub i64 %sub.ptr.lhs.cast, %sub.ptr.rhs.cast
  %cmp9 = icmp eq i64 %sub.ptr.sub, 64
  br i1 %cmp9, label %if.then13, label %lor.lhs.false

lor.lhs.false:                                    ; preds = %while.body
  %20 = load i64, ptr %len.addr, align 8
  %cmp11 = icmp eq i64 %20, 0
  br i1 %cmp11, label %if.then13, label %if.end16

if.then13:                                        ; preds = %lor.lhs.false, %while.body
  %21 = load i32, ptr %level.addr, align 4
  %or = or i32 %21, 1024
  %arraydecay14 = getelementptr inbounds [65 x i8], ptr %buf, i64 0, i64 0
  call void @serverLogRaw(i32 noundef %or, ptr noundef %arraydecay14)
  %arraydecay15 = getelementptr inbounds [65 x i8], ptr %buf, i64 0, i64 0
  store ptr %arraydecay15, ptr %b, align 8
  br label %if.end16

if.end16:                                         ; preds = %if.then13, %lor.lhs.false
  br label %while.cond, !llvm.loop !35

while.end:                                        ; preds = %while.cond
  %22 = load i32, ptr %level.addr, align 4
  %or17 = or i32 %22, 1024
  call void @serverLogRaw(i32 noundef %or17, ptr noundef @.str.280)
  ret void
}