; Function Attrs: nounwind uwtable
define dso_local void @serverLogHexDump(i32 noundef %level, ptr noundef %descr, ptr nocapture noundef readonly %value, i64 noundef %len) local_unnamed_addr #0 {
entry:
  %buf = alloca [65 x i8], align 16
  %and = and i32 %level, 255
  %0 = load i32, ptr getelementptr inbounds (%struct.redisServer, ptr @server, i64 0, i32 156), align 8
  %cmp = icmp slt i32 %and, %0
  br i1 %cmp, label %do.end, label %if.end

if.end:                                           ; preds = %entry
  tail call void (i32, ptr, ...) @_serverLog(i32 noundef %level, ptr noundef nonnull @.str.290, ptr noundef %descr, i64 noundef %len) #22
  br label %do.end

do.end:                                           ; preds = %entry, %if.end
  %tobool.not13 = icmp eq i64 %len, 0
  br i1 %tobool.not13, label %do.end.while.end_crit_edge, label %while.body.lr.ph

do.end.while.end_crit_edge:                       ; preds = %do.end
  %.pre = or i32 %level, 1024
  br label %while.end

while.body.lr.ph:                                 ; preds = %do.end
  %sub.ptr.rhs.cast = ptrtoint ptr %buf to i64
  %or = or i32 %level, 1024
  br label %while.body

while.body:                                       ; preds = %while.body.lr.ph, %if.end16
  %v.016 = phi ptr [ %value, %while.body.lr.ph ], [ %incdec.ptr, %if.end16 ]
  %b.015 = phi ptr [ %buf, %while.body.lr.ph ], [ %b.1, %if.end16 ]
  %len.addr.014 = phi i64 [ %len, %while.body.lr.ph ], [ %dec, %if.end16 ]
  %1 = load i8, ptr %v.016, align 1
  %2 = lshr i8 %1, 4
  %idxprom = zext nneg i8 %2 to i64
  %arrayidx = getelementptr inbounds [17 x i8], ptr @__const.serverLogHexDump.charset, i64 0, i64 %idxprom
  %3 = load i8, ptr %arrayidx, align 1
  store i8 %3, ptr %b.015, align 1
  %4 = load i8, ptr %v.016, align 1
  %5 = and i8 %4, 15
  %idxprom4 = zext nneg i8 %5 to i64
  %arrayidx5 = getelementptr inbounds [17 x i8], ptr @__const.serverLogHexDump.charset, i64 0, i64 %idxprom4
  %6 = load i8, ptr %arrayidx5, align 1
  %arrayidx6 = getelementptr inbounds i8, ptr %b.015, i64 1
  store i8 %6, ptr %arrayidx6, align 1
  %arrayidx7 = getelementptr inbounds i8, ptr %b.015, i64 2
  store i8 0, ptr %arrayidx7, align 1
  %dec = add i64 %len.addr.014, -1
  %incdec.ptr = getelementptr inbounds i8, ptr %v.016, i64 1
  %sub.ptr.lhs.cast = ptrtoint ptr %arrayidx7 to i64
  %sub.ptr.sub = sub i64 %sub.ptr.lhs.cast, %sub.ptr.rhs.cast
  %cmp9 = icmp eq i64 %sub.ptr.sub, 64
  %cmp11 = icmp eq i64 %dec, 0
  %or.cond = or i1 %cmp11, %cmp9
  br i1 %or.cond, label %if.then13, label %if.end16

if.then13:                                        ; preds = %while.body
  call void @serverLogRaw(i32 noundef %or, ptr noundef nonnull %buf) #22
  br label %if.end16

if.end16:                                         ; preds = %while.body, %if.then13
  %b.1 = phi ptr [ %buf, %if.then13 ], [ %arrayidx7, %while.body ]
  br i1 %cmp11, label %while.end, label %while.body, !llvm.loop !39

while.end:                                        ; preds = %if.end16, %do.end.while.end_crit_edge
  %or17.pre-phi = phi i32 [ %.pre, %do.end.while.end_crit_edge ], [ %or, %if.end16 ]
  call void @serverLogRaw(i32 noundef %or17.pre-phi, ptr noundef nonnull @.str.280) #22
  ret void
}